target datalayout = "e-m:e-p270:32:32-p271:32:32-p272:64:64-i64:64-i128:128-f80:128-n8:16:32:64-S128"
target triple = "x86_64-pc-linux-gnu"

%struct.SubscriptingRefState = type { i8, ptr, i32, ptr, ptr, ptr, i32, ptr, ptr, ptr, i64, i8, i64, i8 }
%struct.ArraySubWorkspace = type { i32, i16, i16, i8, i8, [6 x i32], [6 x i32] }
%struct.ExprEvalStep = type { i64, ptr, ptr, %union.anon }
%union.anon = type { %struct.anon.23 }
%struct.anon.23 = type { ptr, ptr, i32, i32, ptr, ptr }
%struct.anon.26 = type { ptr, ptr, i32 }

@.str.1 = private unnamed_addr constant [12 x i8] c"arraysubs.c\00", align 1
@.str.4 = private unnamed_addr constant [47 x i8] c"array subscript in assignment must not be null\00", align 1
@__func__.array_subscript_check_subscripts = private unnamed_addr constant [33 x i8] c"array_subscript_check_subscripts\00", align 1

; Function Attrs: inlinehint nounwind uwtable
define internal i32 @DatumGetInt32(i64 noundef %0) #1 {
  %2 = alloca i64, align 8
  store i64 %0, ptr %2, align 8
  %3 = load i64, ptr %2, align 8
  %4 = trunc i64 %3 to i32
  ret i32 %4
}

; Function Attrs: nounwind uwtable
define internal zeroext i1 @array_subscript_check_subscripts(ptr noundef %0, ptr noundef %1, ptr noundef %2) #0 {
  %4 = alloca i1, align 1
  %5 = alloca ptr, align 8
  %6 = alloca ptr, align 8
  %7 = alloca ptr, align 8
  %8 = alloca ptr, align 8
  %9 = alloca ptr, align 8
  %10 = alloca i32, align 4
  %11 = alloca i32, align 4
  %12 = alloca i32, align 4
  store ptr %0, ptr %5, align 8
  store ptr %1, ptr %6, align 8
  store ptr %2, ptr %7, align 8
  call void @llvm.lifetime.start.p0(i64 8, ptr %8) #6
  %13 = load ptr, ptr %6, align 8
  %14 = getelementptr inbounds nuw %struct.ExprEvalStep, ptr %13, i32 0, i32 3
  %15 = getelementptr inbounds nuw %struct.anon.26, ptr %14, i32 0, i32 1
  %16 = load ptr, ptr %15, align 8
  store ptr %16, ptr %8, align 8
  call void @llvm.lifetime.start.p0(i64 8, ptr %9) #6
  %17 = load ptr, ptr %8, align 8
  %18 = getelementptr inbounds nuw %struct.SubscriptingRefState, ptr %17, i32 0, i32 1
  %19 = load ptr, ptr %18, align 8
  store ptr %19, ptr %9, align 8
  call void @llvm.lifetime.start.p0(i64 4, ptr %10) #6
  store i32 0, ptr %10, align 4
  br label %20

20:                                               ; preds = %81, %3
  %21 = load i32, ptr %10, align 4
  %22 = load ptr, ptr %8, align 8
  %23 = getelementptr inbounds nuw %struct.SubscriptingRefState, ptr %22, i32 0, i32 2
  %24 = load i32, ptr %23, align 8
  %25 = icmp slt i32 %21, %24
  br i1 %25, label %27, label %26

26:                                               ; preds = %20
  store i32 2, ptr %11, align 4
  br label %84

27:                                               ; preds = %20
  %28 = load ptr, ptr %8, align 8
  %29 = getelementptr inbounds nuw %struct.SubscriptingRefState, ptr %28, i32 0, i32 3
  %30 = load ptr, ptr %29, align 8
  %31 = load i32, ptr %10, align 4
  %32 = sext i32 %31 to i64
  %33 = getelementptr inbounds i8, ptr %30, i64 %32
  %34 = load i8, ptr %33, align 1, !range !4, !noundef !5
  %35 = trunc i8 %34 to i1
  br i1 %35, label %36, label %80

36:                                               ; preds = %27
  %37 = load ptr, ptr %8, align 8
  %38 = getelementptr inbounds nuw %struct.SubscriptingRefState, ptr %37, i32 0, i32 5
  %39 = load ptr, ptr %38, align 8
  %40 = load i32, ptr %10, align 4
  %41 = sext i32 %40 to i64
  %42 = getelementptr inbounds i8, ptr %39, i64 %41
  %43 = load i8, ptr %42, align 1, !range !4, !noundef !5
  %44 = trunc i8 %43 to i1
  br i1 %44, label %45, label %66

45:                                               ; preds = %36
  %46 = load ptr, ptr %8, align 8
  %47 = getelementptr inbounds nuw %struct.SubscriptingRefState, ptr %46, i32 0, i32 0
  %48 = load i8, ptr %47, align 8, !range !4, !noundef !5
  %49 = trunc i8 %48 to i1
  br i1 %49, label %50, label %62

50:                                               ; preds = %45
  br label %51

51:                                               ; preds = %50
  br i1 true, label %52, label %54

52:                                               ; preds = %51
  %53 = call zeroext i1 @errstart_cold(i32 noundef 21, ptr noundef null) #7
  br i1 %53, label %56, label %59

54:                                               ; preds = %51
  %55 = call zeroext i1 @errstart(i32 noundef 21, ptr noundef null)
  br i1 %55, label %56, label %59

56:                                               ; preds = %54, %52
  %57 = call i32 @errcode(i32 noundef 67108994)
  %58 = call i32 (ptr, ...) @errmsg(ptr noundef @.str.4)
  call void @errfinish(ptr noundef @.str.1, i32 noundef 199, ptr noundef @__func__.array_subscript_check_subscripts)
  br label %59

59:                                               ; preds = %56, %54, %52
  unreachable

60:                                               ; No predecessors!
  br label %61

61:                                               ; preds = %60
  br label %62

62:                                               ; preds = %61, %45
  %63 = load ptr, ptr %6, align 8
  %64 = getelementptr inbounds nuw %struct.ExprEvalStep, ptr %63, i32 0, i32 2
  %65 = load ptr, ptr %64, align 8
  store i8 1, ptr %65, align 1
  store i1 false, ptr %4, align 1
  store i32 1, ptr %11, align 4
  br label %84

66:                                               ; preds = %36
  %67 = load ptr, ptr %8, align 8
  %68 = getelementptr inbounds nuw %struct.SubscriptingRefState, ptr %67, i32 0, i32 4
  %69 = load ptr, ptr %68, align 8
  %70 = load i32, ptr %10, align 4
  %71 = sext i32 %70 to i64
  %72 = getelementptr inbounds i64, ptr %69, i64 %71
  %73 = load i64, ptr %72, align 8
  %74 = call i32 @DatumGetInt32(i64 noundef %73)
  %75 = load ptr, ptr %9, align 8
  %76 = getelementptr inbounds nuw %struct.ArraySubWorkspace, ptr %75, i32 0, i32 5
  %77 = load i32, ptr %10, align 4
  %78 = sext i32 %77 to i64
  %79 = getelementptr inbounds [6 x i32], ptr %76, i64 0, i64 %78
  store i32 %74, ptr %79, align 4
  br label %80

80:                                               ; preds = %66, %27
  br label %81

81:                                               ; preds = %80
  %82 = load i32, ptr %10, align 4
  %83 = add i32 %82, 1
  store i32 %83, ptr %10, align 4
  br label %20, !llvm.loop !8

84:                                               ; preds = %62, %26
  call void @llvm.lifetime.end.p0(i64 4, ptr %10) #6
  %85 = load i32, ptr %11, align 4
  switch i32 %85, label %154 [
    i32 2, label %86
  ]

86:                                               ; preds = %84
  call void @llvm.lifetime.start.p0(i64 4, ptr %12) #6
  store i32 0, ptr %12, align 4
  br label %87

87:                                               ; preds = %148, %86
  %88 = load i32, ptr %12, align 4
  %89 = load ptr, ptr %8, align 8
  %90 = getelementptr inbounds nuw %struct.SubscriptingRefState, ptr %89, i32 0, i32 6
  %91 = load i32, ptr %90, align 8
  %92 = icmp slt i32 %88, %91
  br i1 %92, label %94, label %93

93:                                               ; preds = %87
  store i32 7, ptr %11, align 4
  br label %151

94:                                               ; preds = %87
  %95 = load ptr, ptr %8, align 8
  %96 = getelementptr inbounds nuw %struct.SubscriptingRefState, ptr %95, i32 0, i32 7
  %97 = load ptr, ptr %96, align 8
  %98 = load i32, ptr %12, align 4
  %99 = sext i32 %98 to i64
  %100 = getelementptr inbounds i8, ptr %97, i64 %99
  %101 = load i8, ptr %100, align 1, !range !4, !noundef !5
  %102 = trunc i8 %101 to i1
  br i1 %102, label %103, label %147

103:                                              ; preds = %94
  %104 = load ptr, ptr %8, align 8
  %105 = getelementptr inbounds nuw %struct.SubscriptingRefState, ptr %104, i32 0, i32 9
  %106 = load ptr, ptr %105, align 8
  %107 = load i32, ptr %12, align 4
  %108 = sext i32 %107 to i64
  %109 = getelementptr inbounds i8, ptr %106, i64 %108
  %110 = load i8, ptr %109, align 1, !range !4, !noundef !5
  %111 = trunc i8 %110 to i1
  br i1 %111, label %112, label %133

112:                                              ; preds = %103
  %113 = load ptr, ptr %8, align 8
  %114 = getelementptr inbounds nuw %struct.SubscriptingRefState, ptr %113, i32 0, i32 0
  %115 = load i8, ptr %114, align 8, !range !4, !noundef !5
  %116 = trunc i8 %115 to i1
  br i1 %116, label %117, label %129

117:                                              ; preds = %112
  br label %118

118:                                              ; preds = %117
  br i1 true, label %119, label %121

119:                                              ; preds = %118
  %120 = call zeroext i1 @errstart_cold(i32 noundef 21, ptr noundef null) #7
  br i1 %120, label %123, label %126

121:                                              ; preds = %118
  %122 = call zeroext i1 @errstart(i32 noundef 21, ptr noundef null)
  br i1 %122, label %123, label %126

123:                                              ; preds = %121, %119
  %124 = call i32 @errcode(i32 noundef 67108994)
  %125 = call i32 (ptr, ...) @errmsg(ptr noundef @.str.4)
  call void @errfinish(ptr noundef @.str.1, i32 noundef 218, ptr noundef @__func__.array_subscript_check_subscripts)
  br label %126

126:                                              ; preds = %123, %121, %119
  unreachable

127:                                              ; No predecessors!
  br label %128

128:                                              ; preds = %127
  br label %129

129:                                              ; preds = %128, %112
  %130 = load ptr, ptr %6, align 8
  %131 = getelementptr inbounds nuw %struct.ExprEvalStep, ptr %130, i32 0, i32 2
  %132 = load ptr, ptr %131, align 8
  store i8 1, ptr %132, align 1
  store i1 false, ptr %4, align 1
  store i32 1, ptr %11, align 4
  br label %151

133:                                              ; preds = %103
  %134 = load ptr, ptr %8, align 8
  %135 = getelementptr inbounds nuw %struct.SubscriptingRefState, ptr %134, i32 0, i32 8
  %136 = load ptr, ptr %135, align 8
  %137 = load i32, ptr %12, align 4
  %138 = sext i32 %137 to i64
  %139 = getelementptr inbounds i64, ptr %136, i64 %138
  %140 = load i64, ptr %139, align 8
  %141 = call i32 @DatumGetInt32(i64 noundef %140)
  %142 = load ptr, ptr %9, align 8
  %143 = getelementptr inbounds nuw %struct.ArraySubWorkspace, ptr %142, i32 0, i32 6
  %144 = load i32, ptr %12, align 4
  %145 = sext i32 %144 to i64
  %146 = getelementptr inbounds [6 x i32], ptr %143, i64 0, i64 %145
  store i32 %141, ptr %146, align 4
  br label %147

147:                                              ; preds = %133, %94
  br label %148

148:                                              ; preds = %147
  %149 = load i32, ptr %12, align 4
  %150 = add i32 %149, 1
  store i32 %150, ptr %12, align 4
  br label %87, !llvm.loop !9

151:                                              ; preds = %129, %93
  call void @llvm.lifetime.end.p0(i64 4, ptr %12) #6
  %152 = load i32, ptr %11, align 4
  switch i32 %152, label %154 [
    i32 7, label %153
  ]

153:                                              ; preds = %151
  store i1 true, ptr %4, align 1
  store i32 1, ptr %11, align 4
  br label %154

154:                                              ; preds = %153, %151, %84
  call void @llvm.lifetime.end.p0(i64 8, ptr %9) #6
  call void @llvm.lifetime.end.p0(i64 8, ptr %8) #6
  %155 = load i1, ptr %4, align 1
  ret i1 %155
}