; Function Attrs: nounwind uwtable
define internal noundef zeroext i1 @array_subscript_check_subscripts(ptr readnone captures(none) %0, ptr noundef readonly captures(none) %1, ptr readnone captures(none) %2) #1 {
  %4 = getelementptr inbounds nuw i8, ptr %1, i64 32
  %5 = load ptr, ptr %4, align 8
  %6 = getelementptr inbounds nuw i8, ptr %5, i64 8
  %7 = load ptr, ptr %6, align 8
  %8 = getelementptr inbounds nuw i8, ptr %5, i64 16
  %9 = load i32, ptr %8, align 8
  %.not37 = icmp sgt i32 %9, 0
  br i1 %.not37, label %.lr.ph, label %.critedge.preheader

.lr.ph:                                           ; preds = %3
  %10 = getelementptr inbounds nuw i8, ptr %5, i64 24
  %11 = getelementptr inbounds nuw i8, ptr %5, i64 40
  %12 = getelementptr inbounds nuw i8, ptr %5, i64 32
  %13 = getelementptr inbounds nuw i8, ptr %7, i64 12
  br label %20

.critedge.preheader:                              ; preds = %44, %3
  %14 = getelementptr inbounds nuw i8, ptr %5, i64 48
  %15 = load i32, ptr %14, align 8
  %.not3539 = icmp slt i32 %15, 1
  br i1 %.not3539, label %.loopexit, label %.lr.ph41

.lr.ph41:                                         ; preds = %.critedge.preheader
  %16 = getelementptr inbounds nuw i8, ptr %5, i64 56
  %17 = getelementptr inbounds nuw i8, ptr %5, i64 72
  %18 = getelementptr inbounds nuw i8, ptr %5, i64 64
  %19 = getelementptr inbounds nuw i8, ptr %7, i64 36
  br label %47

20:                                               ; preds = %.lr.ph, %44
  %21 = phi i32 [ %9, %.lr.ph ], [ %45, %44 ]
  %indvars.iv = phi i64 [ 0, %.lr.ph ], [ %indvars.iv.next, %44 ]
  %22 = load ptr, ptr %10, align 8
  %23 = getelementptr inbounds nuw i8, ptr %22, i64 %indvars.iv
  %24 = load i8, ptr %23, align 1, !range !4, !noundef !5
  %25 = trunc nuw i8 %24 to i1
  br i1 %25, label %26, label %44

26:                                               ; preds = %20
  %27 = load ptr, ptr %11, align 8
  %28 = getelementptr inbounds nuw i8, ptr %27, i64 %indvars.iv
  %29 = load i8, ptr %28, align 1, !range !4, !noundef !5
  %30 = trunc nuw i8 %29 to i1
  br i1 %30, label %31, label %38

31:                                               ; preds = %26
  %32 = load i8, ptr %5, align 8, !range !4, !noundef !5
  %33 = trunc nuw i8 %32 to i1
  br i1 %33, label %34, label %.loopexit.sink.split

34:                                               ; preds = %31
  %35 = tail call zeroext i1 @errstart_cold(i32 noundef 21, ptr noundef null) #8
  tail call void @llvm.assume(i1 %35)
  %36 = tail call i32 @errcode(i32 noundef 67108994) #7
  %37 = tail call i32 (ptr, ...) @errmsg(ptr noundef nonnull @.str.4) #7
  tail call void @errfinish(ptr noundef nonnull @.str.1, i32 noundef 199, ptr noundef nonnull @__func__.array_subscript_check_subscripts) #7
  unreachable

38:                                               ; preds = %26
  %39 = load ptr, ptr %12, align 8
  %40 = getelementptr inbounds nuw i64, ptr %39, i64 %indvars.iv
  %41 = load i64, ptr %40, align 8
  %42 = trunc i64 %41 to i32
  %43 = getelementptr inbounds nuw [6 x i32], ptr %13, i64 0, i64 %indvars.iv
  store i32 %42, ptr %43, align 4
  %.pre = load i32, ptr %8, align 8
  br label %44

44:                                               ; preds = %20, %38
  %45 = phi i32 [ %21, %20 ], [ %.pre, %38 ]
  %indvars.iv.next = add nuw nsw i64 %indvars.iv, 1
  %46 = sext i32 %45 to i64
  %.not = icmp slt i64 %indvars.iv.next, %46
  br i1 %.not, label %20, label %.critedge.preheader, !llvm.loop !6

47:                                               ; preds = %.lr.ph41, %.critedge
  %48 = phi i32 [ %15, %.lr.ph41 ], [ %71, %.critedge ]
  %indvars.iv43 = phi i64 [ 0, %.lr.ph41 ], [ %indvars.iv.next44, %.critedge ]
  %49 = load ptr, ptr %16, align 8
  %50 = getelementptr inbounds nuw i8, ptr %49, i64 %indvars.iv43
  %51 = load i8, ptr %50, align 1, !range !4, !noundef !5
  %52 = trunc nuw i8 %51 to i1
  br i1 %52, label %53, label %.critedge

53:                                               ; preds = %47
  %54 = load ptr, ptr %17, align 8
  %55 = getelementptr inbounds nuw i8, ptr %54, i64 %indvars.iv43
  %56 = load i8, ptr %55, align 1, !range !4, !noundef !5
  %57 = trunc nuw i8 %56 to i1
  br i1 %57, label %58, label %65

58:                                               ; preds = %53
  %59 = load i8, ptr %5, align 8, !range !4, !noundef !5
  %60 = trunc nuw i8 %59 to i1
  br i1 %60, label %61, label %.loopexit.sink.split

61:                                               ; preds = %58
  %62 = tail call zeroext i1 @errstart_cold(i32 noundef 21, ptr noundef null) #8
  tail call void @llvm.assume(i1 %62)
  %63 = tail call i32 @errcode(i32 noundef 67108994) #7
  %64 = tail call i32 (ptr, ...) @errmsg(ptr noundef nonnull @.str.4) #7
  tail call void @errfinish(ptr noundef nonnull @.str.1, i32 noundef 218, ptr noundef nonnull @__func__.array_subscript_check_subscripts) #7
  unreachable

65:                                               ; preds = %53
  %66 = load ptr, ptr %18, align 8
  %67 = getelementptr inbounds nuw i64, ptr %66, i64 %indvars.iv43
  %68 = load i64, ptr %67, align 8
  %69 = trunc i64 %68 to i32
  %70 = getelementptr inbounds nuw [6 x i32], ptr %19, i64 0, i64 %indvars.iv43
  store i32 %69, ptr %70, align 4
  %.pre46 = load i32, ptr %14, align 8
  br label %.critedge

.critedge:                                        ; preds = %47, %65
  %71 = phi i32 [ %48, %47 ], [ %.pre46, %65 ]
  %indvars.iv.next44 = add nuw nsw i64 %indvars.iv43, 1
  %72 = sext i32 %71 to i64
  %.not35.not = icmp slt i64 %indvars.iv.next44, %72
  br i1 %.not35.not, label %47, label %.loopexit, !llvm.loop !8

.loopexit.sink.split:                             ; preds = %58, %31
  %73 = getelementptr inbounds nuw i8, ptr %1, i64 16
  %74 = load ptr, ptr %73, align 8
  store i8 1, ptr %74, align 1
  br label %.loopexit

.loopexit:                                        ; preds = %.critedge, %.loopexit.sink.split, %.critedge.preheader
  %.134 = phi i1 [ true, %.critedge.preheader ], [ false, %.loopexit.sink.split ], [ true, %.critedge ]
  ret i1 %.134
}